; Function Attrs: nounwind uwtable
define noundef ptr @Extra_bddComputeRangeCube(ptr noundef %0, i32 noundef %1, i32 noundef %2) local_unnamed_addr #0 {
  %4 = getelementptr inbounds nuw i8, ptr %0, i64 40
  %5 = load ptr, ptr %4, align 8, !tbaa !34
  tail call void @Cudd_Ref(ptr noundef %5) #19
  %6 = icmp slt i32 %1, %2
  br i1 %6, label %.lr.ph, label %._crit_edge

.lr.ph:                                           ; preds = %3
  %7 = getelementptr inbounds nuw i8, ptr %0, i64 344
  %8 = sext i32 %1 to i64
  br label %9

9:                                                ; preds = %.lr.ph, %9
  %indvars.iv = phi i64 [ %8, %.lr.ph ], [ %indvars.iv.next, %9 ]
  %.01415 = phi ptr [ %5, %.lr.ph ], [ %13, %9 ]
  %10 = load ptr, ptr %7, align 8, !tbaa !38
  %11 = getelementptr inbounds ptr, ptr %10, i64 %indvars.iv
  %12 = load ptr, ptr %11, align 8, !tbaa !25
  %13 = tail call ptr @Cudd_bddAnd(ptr noundef nonnull %0, ptr noundef %.01415, ptr noundef %12) #19
  tail call void @Cudd_Ref(ptr noundef %13) #19
  tail call void @Cudd_RecursiveDeref(ptr noundef nonnull %0, ptr noundef %.01415) #19
  %indvars.iv.next = add nsw i64 %indvars.iv, 1
  %lftr.wideiv = trunc i64 %indvars.iv.next to i32
  %exitcond.not = icmp eq i32 %2, %lftr.wideiv
  br i1 %exitcond.not, label %._crit_edge, label %9, !llvm.loop !54

._crit_edge:                                      ; preds = %9, %3
  %.014.lcssa = phi ptr [ %5, %3 ], [ %13, %9 ]
  tail call void @Cudd_Deref(ptr noundef %.014.lcssa) #19
  ret ptr %.014.lcssa
}